target datalayout = "e-m:e-p270:32:32-p271:32:32-p272:64:64-i64:64-i128:128-f80:128-n8:16:32:64-S128"
target triple = "x86_64-pc-linux-gnu"

%struct.settings = type { i64, i32, i32, i32, ptr, i32, i32, i32, ptr, ptr, i32, double, i32, i32, i32, i8, i32, i32, i8, i32, i32, i32, i32, i32, i32, i8, i8, i8, i8, i8, i8, i8, i32, i32, double, double, i32, i32, i8, i32, i8, i8, ptr, i32, i32, i32, i32, double, double, i32, i8, i32, i32, i32, i32, i32, i8, i8, i8, ptr, i32, i32, i32, i32, i32, i32, i32, i32, i32, i32, double, i8, i32, i32, ptr, i32 }
%struct.conn = type { ptr, i32, i8, i8, i8, i8, i8, i8, i8, i8, ptr, i32, i32, i32, %struct.event, i16, i16, ptr, ptr, i32, i32, ptr, ptr, ptr, i32, ptr, i32, i32, i32, i32, i32, i32, i32, %struct.sockaddr_in6, i32, i8, %struct.anon.8, %union.protocol_binary_request_header, i64, i64, i16, i32, i32, ptr, ptr, ptr, ptr, ptr, ptr }
%struct.event = type { %struct.event_callback, %union.anon.0, i32, ptr, %union.anon.2, i16, i16, %struct.timeval }
%struct.event_callback = type { %struct.anon, i16, i8, i8, %union.anon, ptr }
%struct.anon = type { ptr, ptr }
%union.anon = type { ptr }
%union.anon.0 = type { %struct.anon.1 }
%struct.anon.1 = type { ptr, ptr }
%union.anon.2 = type { %struct.anon.3 }
%struct.anon.3 = type { %struct.anon.4, %struct.timeval }
%struct.anon.4 = type { ptr, ptr }
%struct.timeval = type { i64, i64 }
%struct.sockaddr_in6 = type { i16, i16, i32, %struct.in6_addr, i32 }
%struct.in6_addr = type { %union.anon.7 }
%union.anon.7 = type { [4 x i32] }
%struct.anon.8 = type { ptr, i64, i64 }
%union.protocol_binary_request_header = type { %struct.anon.9 }
%struct.anon.9 = type { i8, i8, i16, i8, i8, i16, i32, i32, i64 }
%struct._mc_resp = type { ptr, ptr, i32, i32, ptr, ptr, ptr, [4 x %struct.iovec], i32, i8, i8, i8, i8, i8, i16, i16, i16, %struct.sockaddr_in6, i32, [1024 x i8] }
%struct.iovec = type { ptr, i64 }
%struct.anon.10 = type { i8, i8, i16, i8, i8, i16, i32, i32, i64 }

@stderr = external global ptr, align 8
@settings = external global %struct.settings, align 8
@.str.3 = private unnamed_addr constant [8 x i8] c" 0x%02x\00", align 1
@.str.4 = private unnamed_addr constant [2 x i8] c"\0A\00", align 1
@.str.18 = private unnamed_addr constant [26 x i8] c">%d Writing bin response:\00", align 1
@.str.19 = private unnamed_addr constant [7 x i8] c"\0A>%d  \00", align 1

; Function Attrs: inlinehint nounwind uwtable
define internal i32 @__bswap_32(i32 noundef %0) #5 {
  %2 = alloca i32, align 4
  store i32 %0, ptr %2, align 4, !tbaa !30
  %3 = load i32, ptr %2, align 4, !tbaa !30
  %4 = and i32 %3, -16777216
  %5 = lshr i32 %4, 24
  %6 = load i32, ptr %2, align 4, !tbaa !30
  %7 = and i32 %6, 16711680
  %8 = lshr i32 %7, 8
  %9 = or i32 %5, %8
  %10 = load i32, ptr %2, align 4, !tbaa !30
  %11 = and i32 %10, 65280
  %12 = shl i32 %11, 8
  %13 = or i32 %9, %12
  %14 = load i32, ptr %2, align 4, !tbaa !30
  %15 = and i32 %14, 255
  %16 = shl i32 %15, 24
  %17 = or i32 %13, %16
  ret i32 %17
}

; Function Attrs: inlinehint nounwind uwtable
define internal zeroext i16 @__bswap_16(i16 noundef zeroext %0) #5 {
  %2 = alloca i16, align 2
  store i16 %0, ptr %2, align 2, !tbaa !37
  %3 = load i16, ptr %2, align 2, !tbaa !37
  %4 = zext i16 %3 to i32
  %5 = ashr i32 %4, 8
  %6 = and i32 %5, 255
  %7 = load i16, ptr %2, align 2, !tbaa !37
  %8 = zext i16 %7 to i32
  %9 = and i32 %8, 255
  %10 = shl i32 %9, 8
  %11 = or i32 %6, %10
  %12 = trunc i32 %11 to i16
  ret i16 %12
}

; Function Attrs: nounwind uwtable
define internal void @add_bin_header(ptr noundef %0, i16 noundef zeroext %1, i8 noundef zeroext %2, i16 noundef zeroext %3, i32 noundef %4) #0 {
  %6 = alloca ptr, align 8
  %7 = alloca i16, align 2
  %8 = alloca i8, align 1
  %9 = alloca i16, align 2
  %10 = alloca i32, align 4
  %11 = alloca ptr, align 8
  %12 = alloca ptr, align 8
  %13 = alloca i32, align 4
  store ptr %0, ptr %6, align 8, !tbaa !4
  store i16 %1, ptr %7, align 2, !tbaa !37
  store i8 %2, ptr %8, align 1, !tbaa !34
  store i16 %3, ptr %9, align 2, !tbaa !37
  store i32 %4, ptr %10, align 4, !tbaa !30
  call void @llvm.lifetime.start.p0(i64 8, ptr %11) #8
  call void @llvm.lifetime.start.p0(i64 8, ptr %12) #8
  %14 = load ptr, ptr %6, align 8, !tbaa !4
  %15 = getelementptr inbounds nuw %struct.conn, ptr %14, i32 0, i32 21
  %16 = load ptr, ptr %15, align 8, !tbaa !66
  store ptr %16, ptr %12, align 8, !tbaa !82
  %17 = load ptr, ptr %12, align 8, !tbaa !82
  call void @resp_reset(ptr noundef %17)
  %18 = load ptr, ptr %12, align 8, !tbaa !82
  %19 = getelementptr inbounds nuw %struct._mc_resp, ptr %18, i32 0, i32 19
  %20 = getelementptr inbounds [1024 x i8], ptr %19, i64 0, i64 0
  store ptr %20, ptr %11, align 8, !tbaa !70
  %21 = load ptr, ptr %11, align 8, !tbaa !70
  %22 = getelementptr inbounds nuw %struct.anon.10, ptr %21, i32 0, i32 0
  store i8 -127, ptr %22, align 8, !tbaa !34
  %23 = load ptr, ptr %6, align 8, !tbaa !4
  %24 = getelementptr inbounds nuw %struct.conn, ptr %23, i32 0, i32 37
  %25 = getelementptr inbounds nuw %struct.anon.9, ptr %24, i32 0, i32 1
  %26 = load i8, ptr %25, align 1, !tbaa !34
  %27 = load ptr, ptr %11, align 8, !tbaa !70
  %28 = getelementptr inbounds nuw %struct.anon.10, ptr %27, i32 0, i32 1
  store i8 %26, ptr %28, align 1, !tbaa !34
  %29 = load i16, ptr %9, align 2, !tbaa !37
  %30 = call zeroext i16 @__bswap_16(i16 noundef zeroext %29)
  %31 = load ptr, ptr %11, align 8, !tbaa !70
  %32 = getelementptr inbounds nuw %struct.anon.10, ptr %31, i32 0, i32 2
  store i16 %30, ptr %32, align 2, !tbaa !34
  %33 = load i8, ptr %8, align 1, !tbaa !34
  %34 = load ptr, ptr %11, align 8, !tbaa !70
  %35 = getelementptr inbounds nuw %struct.anon.10, ptr %34, i32 0, i32 3
  store i8 %33, ptr %35, align 4, !tbaa !34
  %36 = load ptr, ptr %11, align 8, !tbaa !70
  %37 = getelementptr inbounds nuw %struct.anon.10, ptr %36, i32 0, i32 4
  store i8 0, ptr %37, align 1, !tbaa !34
  %38 = load i16, ptr %7, align 2, !tbaa !37
  %39 = call zeroext i16 @__bswap_16(i16 noundef zeroext %38)
  %40 = load ptr, ptr %11, align 8, !tbaa !70
  %41 = getelementptr inbounds nuw %struct.anon.10, ptr %40, i32 0, i32 5
  store i16 %39, ptr %41, align 2, !tbaa !34
  %42 = load i32, ptr %10, align 4, !tbaa !30
  %43 = call i32 @__bswap_32(i32 noundef %42)
  %44 = load ptr, ptr %11, align 8, !tbaa !70
  %45 = getelementptr inbounds nuw %struct.anon.10, ptr %44, i32 0, i32 6
  store i32 %43, ptr %45, align 8, !tbaa !34
  %46 = load ptr, ptr %6, align 8, !tbaa !4
  %47 = getelementptr inbounds nuw %struct.conn, ptr %46, i32 0, i32 41
  %48 = load i32, ptr %47, align 4, !tbaa !75
  %49 = load ptr, ptr %11, align 8, !tbaa !70
  %50 = getelementptr inbounds nuw %struct.anon.10, ptr %49, i32 0, i32 7
  store i32 %48, ptr %50, align 4, !tbaa !34
  %51 = load ptr, ptr %6, align 8, !tbaa !4
  %52 = getelementptr inbounds nuw %struct.conn, ptr %51, i32 0, i32 38
  %53 = load i64, ptr %52, align 8, !tbaa !60
  %54 = call i64 @htonll(i64 noundef %53)
  %55 = load ptr, ptr %11, align 8, !tbaa !70
  %56 = getelementptr inbounds nuw %struct.anon.10, ptr %55, i32 0, i32 8
  store i64 %54, ptr %56, align 8, !tbaa !34
  %57 = load i32, ptr getelementptr inbounds nuw (%struct.settings, ptr @settings, i32 0, i32 5), align 8, !tbaa !62
  %58 = icmp sgt i32 %57, 1
  br i1 %58, label %59, label %94

59:                                               ; preds = %5
  call void @llvm.lifetime.start.p0(i64 4, ptr %13) #8
  %60 = load ptr, ptr @stderr, align 8, !tbaa !28
  %61 = load ptr, ptr %6, align 8, !tbaa !4
  %62 = getelementptr inbounds nuw %struct.conn, ptr %61, i32 0, i32 1
  %63 = load i32, ptr %62, align 8, !tbaa !42
  %64 = call i32 (ptr, ptr, ...) @fprintf(ptr noundef %60, ptr noundef @.str.18, i32 noundef %63) #8
  store i32 0, ptr %13, align 4, !tbaa !30
  br label %65

65:                                               ; preds = %88, %59
  %66 = load i32, ptr %13, align 4, !tbaa !30
  %67 = sext i32 %66 to i64
  %68 = icmp ult i64 %67, 24
  br i1 %68, label %69, label %91

69:                                               ; preds = %65
  %70 = load i32, ptr %13, align 4, !tbaa !30
  %71 = srem i32 %70, 4
  %72 = icmp eq i32 %71, 0
  br i1 %72, label %73, label %79

73:                                               ; preds = %69
  %74 = load ptr, ptr @stderr, align 8, !tbaa !28
  %75 = load ptr, ptr %6, align 8, !tbaa !4
  %76 = getelementptr inbounds nuw %struct.conn, ptr %75, i32 0, i32 1
  %77 = load i32, ptr %76, align 8, !tbaa !42
  %78 = call i32 (ptr, ptr, ...) @fprintf(ptr noundef %74, ptr noundef @.str.19, i32 noundef %77) #8
  br label %79

79:                                               ; preds = %73, %69
  %80 = load ptr, ptr @stderr, align 8, !tbaa !28
  %81 = load ptr, ptr %11, align 8, !tbaa !70
  %82 = load i32, ptr %13, align 4, !tbaa !30
  %83 = sext i32 %82 to i64
  %84 = getelementptr inbounds [24 x i8], ptr %81, i64 0, i64 %83
  %85 = load i8, ptr %84, align 1, !tbaa !34
  %86 = zext i8 %85 to i32
  %87 = call i32 (ptr, ptr, ...) @fprintf(ptr noundef %80, ptr noundef @.str.3, i32 noundef %86) #8
  br label %88

88:                                               ; preds = %79
  %89 = load i32, ptr %13, align 4, !tbaa !30
  %90 = add nsw i32 %89, 1
  store i32 %90, ptr %13, align 4, !tbaa !30
  br label %65, !llvm.loop !83

91:                                               ; preds = %65
  %92 = load ptr, ptr @stderr, align 8, !tbaa !28
  %93 = call i32 (ptr, ptr, ...) @fprintf(ptr noundef %92, ptr noundef @.str.4) #8
  call void @llvm.lifetime.end.p0(i64 4, ptr %13) #8
  br label %94

94:                                               ; preds = %91, %5
  %95 = load ptr, ptr %12, align 8, !tbaa !82
  %96 = getelementptr inbounds nuw %struct._mc_resp, ptr %95, i32 0, i32 2
  store i32 24, ptr %96, align 8, !tbaa !84
  %97 = load ptr, ptr %12, align 8, !tbaa !82
  %98 = load ptr, ptr %12, align 8, !tbaa !82
  %99 = getelementptr inbounds nuw %struct._mc_resp, ptr %98, i32 0, i32 19
  %100 = getelementptr inbounds [1024 x i8], ptr %99, i64 0, i64 0
  %101 = load ptr, ptr %12, align 8, !tbaa !82
  %102 = getelementptr inbounds nuw %struct._mc_resp, ptr %101, i32 0, i32 2
  %103 = load i32, ptr %102, align 8, !tbaa !84
  call void @resp_add_iov(ptr noundef %97, ptr noundef %100, i32 noundef %103)
  call void @llvm.lifetime.end.p0(i64 8, ptr %12) #8
  call void @llvm.lifetime.end.p0(i64 8, ptr %11) #8
  ret void
}