; Function Attrs: nounwind uwtable
define internal fastcc void @add_bin_header(ptr noundef readonly captures(none) %0, i16 noundef zeroext %1, i8 noundef zeroext range(i8 0, 5) %2, i16 noundef zeroext %3, i32 noundef %4) unnamed_addr #0 {
  %6 = getelementptr inbounds nuw i8, ptr %0, i64 208
  %7 = load ptr, ptr %6, align 8, !tbaa !60
  tail call void @resp_reset(ptr noundef %7) #11
  %8 = getelementptr inbounds nuw i8, ptr %7, i64 160
  store i8 -127, ptr %8, align 8, !tbaa !28
  %9 = getelementptr inbounds nuw i8, ptr %0, i64 337
  %10 = load i8, ptr %9, align 1, !tbaa !28
  %11 = getelementptr inbounds nuw i8, ptr %7, i64 161
  store i8 %10, ptr %11, align 1, !tbaa !28
  %rev.i = tail call noundef i16 @llvm.bswap.i16(i16 %3)
  %12 = getelementptr inbounds nuw i8, ptr %7, i64 162
  store i16 %rev.i, ptr %12, align 2, !tbaa !28
  %13 = getelementptr inbounds nuw i8, ptr %7, i64 164
  store i8 %2, ptr %13, align 4, !tbaa !28
  %14 = getelementptr inbounds nuw i8, ptr %7, i64 165
  store i8 0, ptr %14, align 1, !tbaa !28
  %rev.i30 = tail call noundef i16 @llvm.bswap.i16(i16 %1)
  %15 = getelementptr inbounds nuw i8, ptr %7, i64 166
  store i16 %rev.i30, ptr %15, align 2, !tbaa !28
  %16 = tail call noundef i32 @llvm.bswap.i32(i32 %4)
  %17 = getelementptr inbounds nuw i8, ptr %7, i64 168
  store i32 %16, ptr %17, align 8, !tbaa !28
  %18 = getelementptr inbounds nuw i8, ptr %0, i64 380
  %19 = load i32, ptr %18, align 4, !tbaa !73
  %20 = getelementptr inbounds nuw i8, ptr %7, i64 172
  store i32 %19, ptr %20, align 4, !tbaa !28
  %21 = getelementptr inbounds nuw i8, ptr %0, i64 360
  %22 = load i64, ptr %21, align 8, !tbaa !55
  %23 = tail call i64 @htonll(i64 noundef %22) #11
  %24 = getelementptr inbounds nuw i8, ptr %7, i64 176
  store i64 %23, ptr %24, align 8, !tbaa !28
  %25 = load i32, ptr getelementptr inbounds nuw (i8, ptr @settings, i64 32), align 8, !tbaa !57
  %26 = icmp sgt i32 %25, 1
  br i1 %26, label %27, label %47

27:                                               ; preds = %5
  %28 = load ptr, ptr @stderr, align 8, !tbaa !58
  %29 = getelementptr inbounds nuw i8, ptr %0, i64 8
  %30 = load i32, ptr %29, align 8, !tbaa !37
  %31 = tail call i32 (ptr, ptr, ...) @fprintf(ptr noundef %28, ptr noundef nonnull @.str.18, i32 noundef %30) #12
  br label %32

32:                                               ; preds = %27, %39
  %indvars.iv = phi i64 [ 0, %27 ], [ %indvars.iv.next, %39 ]
  %33 = and i64 %indvars.iv, 3
  %34 = icmp eq i64 %33, 0
  br i1 %34, label %35, label %39

35:                                               ; preds = %32
  %36 = load ptr, ptr @stderr, align 8, !tbaa !58
  %37 = load i32, ptr %29, align 8, !tbaa !37
  %38 = tail call i32 (ptr, ptr, ...) @fprintf(ptr noundef %36, ptr noundef nonnull @.str.19, i32 noundef %37) #12
  br label %39

39:                                               ; preds = %35, %32
  %40 = load ptr, ptr @stderr, align 8, !tbaa !58
  %41 = getelementptr inbounds nuw [24 x i8], ptr %8, i64 0, i64 %indvars.iv
  %42 = load i8, ptr %41, align 1, !tbaa !28
  %43 = zext i8 %42 to i32
  %44 = tail call i32 (ptr, ptr, ...) @fprintf(ptr noundef %40, ptr noundef nonnull @.str.3, i32 noundef %43) #12
  %indvars.iv.next = add nuw nsw i64 %indvars.iv, 1
  %exitcond.not = icmp eq i64 %indvars.iv.next, 24
  br i1 %exitcond.not, label %45, label %32, !llvm.loop !77

45:                                               ; preds = %39
  %46 = load ptr, ptr @stderr, align 8, !tbaa !58
  %fputc = tail call i32 @fputc(i32 10, ptr %46)
  br label %47

47:                                               ; preds = %45, %5
  %48 = getelementptr inbounds nuw i8, ptr %7, i64 16
  store i32 24, ptr %48, align 8, !tbaa !78
  tail call void @resp_add_iov(ptr noundef nonnull %7, ptr noundef nonnull %8, i32 noundef 24) #11
  ret void
}